target datalayout = "e-m:e-p270:32:32-p271:32:32-p272:64:64-i64:64-i128:128-f80:128-n8:16:32:64-S128"
target triple = "x86_64-pc-linux-gnu"

%struct.slurm_conf_t = type { i64, ptr, i16, ptr, ptr, ptr, ptr, ptr, i16, ptr, ptr, ptr, ptr, ptr, ptr, ptr, i16, ptr, ptr, ptr, ptr, i16, ptr, ptr, ptr, i64, ptr, ptr, ptr, ptr, i16, ptr, ptr, i16, i32, ptr, i32, ptr, i32, i32, ptr, ptr, i64, i64, ptr, i16, i16, ptr, i32, i32, ptr, i32, ptr, i32, i16, i16, i16, ptr, i16, i16, ptr, ptr, i32, i16, i16, ptr, i32, i16, ptr, ptr, ptr, ptr, i16, ptr, ptr, ptr, ptr, i32, ptr, ptr, ptr, ptr, i16, i16, ptr, i32, i32, i32, i16, i16, ptr, ptr, i16, ptr, ptr, i32, i32, i32, i32, i32, i64, i32, i32, i16, ptr, ptr, i32, ptr, ptr, ptr, i16, i32, ptr, ptr, i16, ptr, ptr, i32, i16, ptr, ptr, ptr, ptr, i32, i32, i16, i16, i32, ptr, i16, ptr, i32, i32, i32, i32, i32, i32, ptr, i16, ptr, ptr, i32, i16, ptr, i32, i16, i16, ptr, ptr, ptr, i16, ptr, ptr, ptr, ptr, i16, i16, ptr, i16, ptr, i16, ptr, i16, ptr, i16, ptr, ptr, ptr, ptr, i16, ptr, ptr, ptr, i32, ptr, i32, ptr, ptr, i16, ptr, ptr, i32, i16, ptr, ptr, i16, i16, ptr, i16, ptr, ptr, ptr, i32, ptr, i16, i16, ptr, ptr, ptr, ptr, ptr, ptr, ptr, ptr, i16, i32, i16, ptr, ptr, ptr, ptr, i32, ptr, ptr, ptr, i16, ptr, ptr, ptr, i16, ptr, i16, ptr, i16, i16, ptr }
%struct.data_s = type { i32, i32, %union.anon }
%union.anon = type { ptr }
%struct.data_list_s = type { i32, i64, ptr, ptr }
%struct.data_list_node_s = type { i32, ptr, ptr, ptr }

@slurm_conf = external global %struct.slurm_conf_t, align 8

; Function Attrs: nounwind uwtable
define internal void @_check_data_list_magic(ptr noundef %0) #0 {
  %2 = alloca ptr, align 8
  store ptr %0, ptr %2, align 8
  ret void
}

; Function Attrs: nounwind uwtable
define internal void @_check_data_list_node_magic(ptr noundef %0) #0 {
  %2 = alloca ptr, align 8
  store ptr %0, ptr %2, align 8
  ret void
}

; Function Attrs: nounwind uwtable
define internal void @_check_magic(ptr noundef %0) #0 {
  %2 = alloca ptr, align 8
  store ptr %0, ptr %2, align 8
  %3 = load ptr, ptr %2, align 8
  %4 = icmp ne ptr %3, null
  br i1 %4, label %6, label %5

5:                                                ; preds = %1
  br label %29

6:                                                ; preds = %1
  %7 = load i64, ptr getelementptr inbounds nuw (%struct.slurm_conf_t, ptr @slurm_conf, i32 0, i32 42), align 8
  %8 = and i64 %7, 256
  %9 = icmp ne i64 %8, 0
  br i1 %9, label %10, label %29

10:                                               ; preds = %6
  %11 = load ptr, ptr %2, align 8
  %12 = getelementptr inbounds nuw %struct.data_s, ptr %11, i32 0, i32 1
  %13 = load i32, ptr %12, align 4
  %14 = icmp eq i32 %13, 65282
  br i1 %14, label %15, label %19

15:                                               ; preds = %10
  %16 = load ptr, ptr %2, align 8
  %17 = getelementptr inbounds nuw %struct.data_s, ptr %16, i32 0, i32 2
  %18 = load ptr, ptr %17, align 8
  call void @_check_data_list_magic(ptr noundef %18)
  br label %19

19:                                               ; preds = %15, %10
  %20 = load ptr, ptr %2, align 8
  %21 = getelementptr inbounds nuw %struct.data_s, ptr %20, i32 0, i32 1
  %22 = load i32, ptr %21, align 4
  %23 = icmp eq i32 %22, 65283
  br i1 %23, label %24, label %28

24:                                               ; preds = %19
  %25 = load ptr, ptr %2, align 8
  %26 = getelementptr inbounds nuw %struct.data_s, ptr %25, i32 0, i32 2
  %27 = load ptr, ptr %26, align 8
  call void @_check_data_list_magic(ptr noundef %27)
  br label %28

28:                                               ; preds = %24, %19
  br label %29

29:                                               ; preds = %5, %28, %6
  ret void
}

; Function Attrs: nounwind uwtable
define internal zeroext i1 @_data_match_lists(ptr noundef %0, ptr noundef %1, i1 noundef zeroext %2) #0 {
  %4 = alloca i1, align 1
  %5 = alloca ptr, align 8
  %6 = alloca ptr, align 8
  %7 = alloca i8, align 1
  %8 = alloca i8, align 1
  %9 = alloca ptr, align 8
  %10 = alloca ptr, align 8
  %11 = alloca i32, align 4
  store ptr %0, ptr %5, align 8
  store ptr %1, ptr %6, align 8
  %12 = zext i1 %2 to i8
  store i8 %12, ptr %7, align 1
  call void @llvm.lifetime.start.p0(i64 1, ptr %8) #10
  store i8 0, ptr %8, align 1
  call void @llvm.lifetime.start.p0(i64 8, ptr %9) #10
  call void @llvm.lifetime.start.p0(i64 8, ptr %10) #10
  %13 = load ptr, ptr %5, align 8
  %14 = icmp ne ptr %13, null
  br i1 %14, label %15, label %20

15:                                               ; preds = %3
  %16 = load ptr, ptr %5, align 8
  %17 = getelementptr inbounds nuw %struct.data_s, ptr %16, i32 0, i32 1
  %18 = load i32, ptr %17, align 4
  %19 = icmp ne i32 %18, 65282
  br i1 %19, label %20, label %21

20:                                               ; preds = %15, %3
  store i1 false, ptr %4, align 1
  store i32 1, ptr %11, align 4
  br label %97

21:                                               ; preds = %15
  %22 = load ptr, ptr %6, align 8
  %23 = icmp ne ptr %22, null
  br i1 %23, label %24, label %29

24:                                               ; preds = %21
  %25 = load ptr, ptr %6, align 8
  %26 = getelementptr inbounds nuw %struct.data_s, ptr %25, i32 0, i32 1
  %27 = load i32, ptr %26, align 4
  %28 = icmp ne i32 %27, 65282
  br i1 %28, label %29, label %30

29:                                               ; preds = %24, %21
  store i1 false, ptr %4, align 1
  store i32 1, ptr %11, align 4
  br label %97

30:                                               ; preds = %24
  %31 = load ptr, ptr %5, align 8
  call void @_check_magic(ptr noundef %31)
  %32 = load ptr, ptr %6, align 8
  call void @_check_magic(ptr noundef %32)
  %33 = load ptr, ptr %5, align 8
  %34 = getelementptr inbounds nuw %struct.data_s, ptr %33, i32 0, i32 2
  %35 = load ptr, ptr %34, align 8
  %36 = getelementptr inbounds nuw %struct.data_list_s, ptr %35, i32 0, i32 1
  %37 = load i64, ptr %36, align 8
  %38 = load ptr, ptr %6, align 8
  %39 = getelementptr inbounds nuw %struct.data_s, ptr %38, i32 0, i32 2
  %40 = load ptr, ptr %39, align 8
  %41 = getelementptr inbounds nuw %struct.data_list_s, ptr %40, i32 0, i32 1
  %42 = load i64, ptr %41, align 8
  %43 = icmp ne i64 %37, %42
  br i1 %43, label %44, label %45

44:                                               ; preds = %30
  store i1 false, ptr %4, align 1
  store i32 1, ptr %11, align 4
  br label %97

45:                                               ; preds = %30
  %46 = load ptr, ptr %5, align 8
  %47 = getelementptr inbounds nuw %struct.data_s, ptr %46, i32 0, i32 2
  %48 = load ptr, ptr %47, align 8
  %49 = getelementptr inbounds nuw %struct.data_list_s, ptr %48, i32 0, i32 2
  %50 = load ptr, ptr %49, align 8
  store ptr %50, ptr %9, align 8
  %51 = load ptr, ptr %6, align 8
  %52 = getelementptr inbounds nuw %struct.data_s, ptr %51, i32 0, i32 2
  %53 = load ptr, ptr %52, align 8
  %54 = getelementptr inbounds nuw %struct.data_list_s, ptr %53, i32 0, i32 2
  %55 = load ptr, ptr %54, align 8
  store ptr %55, ptr %10, align 8
  br label %56

56:                                               ; preds = %92, %72, %45
  %57 = load ptr, ptr %9, align 8
  %58 = icmp ne ptr %57, null
  br i1 %58, label %59, label %63

59:                                               ; preds = %56
  %60 = load i8, ptr %8, align 1, !range !11, !noundef !12
  %61 = trunc i8 %60 to i1
  %62 = xor i1 %61, true
  br label %63

63:                                               ; preds = %59, %56
  %64 = phi i1 [ false, %56 ], [ %62, %59 ]
  br i1 %64, label %65, label %93

65:                                               ; preds = %63
  %66 = load ptr, ptr %9, align 8
  call void @_check_data_list_node_magic(ptr noundef %66)
  %67 = load ptr, ptr %10, align 8
  %68 = icmp ne ptr %67, null
  br i1 %68, label %73, label %69

69:                                               ; preds = %65
  %70 = load i8, ptr %7, align 1, !range !11, !noundef !12
  %71 = trunc i8 %70 to i1
  br i1 %71, label %72, label %73

72:                                               ; preds = %69
  br label %56, !llvm.loop !28

73:                                               ; preds = %69, %65
  %74 = load ptr, ptr %10, align 8
  call void @_check_data_list_node_magic(ptr noundef %74)
  %75 = load ptr, ptr %9, align 8
  %76 = getelementptr inbounds nuw %struct.data_list_node_s, ptr %75, i32 0, i32 2
  %77 = load ptr, ptr %76, align 8
  %78 = load ptr, ptr %10, align 8
  %79 = getelementptr inbounds nuw %struct.data_list_node_s, ptr %78, i32 0, i32 2
  %80 = load ptr, ptr %79, align 8
  %81 = load i8, ptr %7, align 1, !range !11, !noundef !12
  %82 = trunc i8 %81 to i1
  %83 = call zeroext i1 @data_check_match(ptr noundef %77, ptr noundef %80, i1 noundef zeroext %82)
  br i1 %83, label %84, label %91

84:                                               ; preds = %73
  %85 = load ptr, ptr %9, align 8
  %86 = getelementptr inbounds nuw %struct.data_list_node_s, ptr %85, i32 0, i32 1
  %87 = load ptr, ptr %86, align 8
  store ptr %87, ptr %9, align 8
  %88 = load ptr, ptr %10, align 8
  %89 = getelementptr inbounds nuw %struct.data_list_node_s, ptr %88, i32 0, i32 1
  %90 = load ptr, ptr %89, align 8
  store ptr %90, ptr %10, align 8
  br label %92

91:                                               ; preds = %73
  store i8 1, ptr %8, align 1
  br label %92

92:                                               ; preds = %91, %84
  br label %56, !llvm.loop !28

93:                                               ; preds = %63
  %94 = load i8, ptr %8, align 1, !range !11, !noundef !12
  %95 = trunc i8 %94 to i1
  %96 = xor i1 %95, true
  store i1 %96, ptr %4, align 1
  store i32 1, ptr %11, align 4
  br label %97

97:                                               ; preds = %93, %44, %29, %20
  call void @llvm.lifetime.end.p0(i64 8, ptr %10) #10
  call void @llvm.lifetime.end.p0(i64 8, ptr %9) #10
  call void @llvm.lifetime.end.p0(i64 1, ptr %8) #10
  %98 = load i1, ptr %4, align 1
  ret i1 %98
}